target datalayout = "e-m:e-p270:32:32-p271:32:32-p272:64:64-i64:64-i128:128-f80:128-n8:16:32:64-S128"
target triple = "x86_64-pc-linux-gnu"

%"struct.cv::UMatData" = type { ptr, ptr, i32, i32, ptr, ptr, i64, i32, ptr, ptr, i32, i32, ptr, %"class.std::shared_ptr" }
%"class.std::shared_ptr" = type { %"class.std::__shared_ptr" }
%"class.std::__shared_ptr" = type { ptr, %"class.std::__shared_count" }
%"class.std::__shared_count" = type { ptr }
%"class.cv::UMat" = type { i32, i32, i32, i32, ptr, i32, ptr, i64, %"struct.cv::MatSize", %"struct.cv::MatStep" }
%"struct.cv::MatSize" = type { ptr }
%"struct.cv::MatStep" = type { ptr, [2 x i64] }

; Function Attrs: inlinehint mustprogress nounwind uwtable
define linkonce_odr hidden noundef nonnull align 4 dereferenceable(4) ptr @_ZN2cv7MatSizeixEi(ptr noundef nonnull align 8 dereferenceable(8) %0, i32 noundef %1) #5 comdat align 2 {
  %3 = alloca ptr, align 8
  %4 = alloca i32, align 4
  store ptr %0, ptr %3, align 8, !tbaa !82
  store i32 %1, ptr %4, align 4, !tbaa !37
  %5 = load ptr, ptr %3, align 8
  %6 = getelementptr inbounds nuw %"struct.cv::MatSize", ptr %5, i32 0, i32 0
  %7 = load ptr, ptr %6, align 8, !tbaa !85
  %8 = load i32, ptr %4, align 4, !tbaa !37
  %9 = sext i32 %8 to i64
  %10 = getelementptr inbounds i32, ptr %7, i64 %9
  ret ptr %10
}

; Function Attrs: inlinehint mustprogress nounwind uwtable
define linkonce_odr hidden noundef nonnull align 4 dereferenceable(4) ptr @_ZNK2cv7MatSizeixEi(ptr noundef nonnull align 8 dereferenceable(8) %0, i32 noundef %1) #5 comdat align 2 {
  %3 = alloca ptr, align 8
  %4 = alloca i32, align 4
  store ptr %0, ptr %3, align 8, !tbaa !82
  store i32 %1, ptr %4, align 4, !tbaa !37
  %5 = load ptr, ptr %3, align 8
  %6 = getelementptr inbounds nuw %"struct.cv::MatSize", ptr %5, i32 0, i32 0
  %7 = load ptr, ptr %6, align 8, !tbaa !85
  %8 = load i32, ptr %4, align 4, !tbaa !37
  %9 = sext i32 %8 to i64
  %10 = getelementptr inbounds i32, ptr %7, i64 %9
  ret ptr %10
}

; Function Attrs: mustprogress uwtable
define void @_ZN2cv4UMat10deallocateEv(ptr noundef nonnull align 8 dereferenceable(80) %0) #3 align 2 {
  %2 = alloca ptr, align 8
  %3 = alloca ptr, align 8
  store ptr %0, ptr %2, align 8, !tbaa !65
  %4 = load ptr, ptr %2, align 8
  call void @llvm.lifetime.start.p0(i64 8, ptr %3) #16
  %5 = getelementptr inbounds nuw %"class.cv::UMat", ptr %4, i32 0, i32 6
  %6 = load ptr, ptr %5, align 8, !tbaa !80
  store ptr %6, ptr %3, align 8, !tbaa !3
  %7 = getelementptr inbounds nuw %"class.cv::UMat", ptr %4, i32 0, i32 6
  store ptr null, ptr %7, align 8, !tbaa !80
  %8 = load ptr, ptr %3, align 8, !tbaa !3
  %9 = getelementptr inbounds nuw %"struct.cv::UMatData", ptr %8, i32 0, i32 1
  %10 = load ptr, ptr %9, align 8, !tbaa !10
  %11 = load ptr, ptr %3, align 8, !tbaa !3
  %12 = load ptr, ptr %10, align 8, !tbaa !40
  %13 = getelementptr inbounds ptr, ptr %12, i64 4
  %14 = load ptr, ptr %13, align 8
  call void %14(ptr noundef nonnull align 8 dereferenceable(8) %10, ptr noundef %11)
  call void @llvm.lifetime.end.p0(i64 8, ptr %3) #16
  ret void
}

; Function Attrs: mustprogress uwtable
define void @_ZN2cv4UMat8copySizeERKS0_(ptr noundef nonnull align 8 dereferenceable(80) %0, ptr noundef nonnull align 8 dereferenceable(80) %1) #3 align 2 {
  %3 = alloca ptr, align 8
  %4 = alloca ptr, align 8
  %5 = alloca i32, align 4
  store ptr %0, ptr %3, align 8, !tbaa !65
  store ptr %1, ptr %4, align 8, !tbaa !65
  %6 = load ptr, ptr %3, align 8
  %7 = load ptr, ptr %4, align 8, !tbaa !65
  %8 = getelementptr inbounds nuw %"class.cv::UMat", ptr %7, i32 0, i32 1
  %9 = load i32, ptr %8, align 4, !tbaa !75
  call void @_ZN2cv7setSizeERNS_4UMatEiPKiPKmb(ptr noundef nonnull align 8 dereferenceable(80) %6, i32 noundef %9, ptr noundef null, ptr noundef null, i1 noundef zeroext false)
  call void @llvm.lifetime.start.p0(i64 4, ptr %5) #16
  store i32 0, ptr %5, align 4, !tbaa !37
  br label %10

10:                                               ; preds = %33, %2
  %11 = load i32, ptr %5, align 4, !tbaa !37
  %12 = getelementptr inbounds nuw %"class.cv::UMat", ptr %6, i32 0, i32 1
  %13 = load i32, ptr %12, align 4, !tbaa !75
  %14 = icmp slt i32 %11, %13
  br i1 %14, label %16, label %15

15:                                               ; preds = %10
  call void @llvm.lifetime.end.p0(i64 4, ptr %5) #16
  br label %36

16:                                               ; preds = %10
  %17 = load ptr, ptr %4, align 8, !tbaa !65
  %18 = getelementptr inbounds nuw %"class.cv::UMat", ptr %17, i32 0, i32 8
  %19 = load i32, ptr %5, align 4, !tbaa !37
  %20 = call noundef nonnull align 4 dereferenceable(4) ptr @_ZNK2cv7MatSizeixEi(ptr noundef nonnull align 8 dereferenceable(8) %18, i32 noundef %19)
  %21 = load i32, ptr %20, align 4, !tbaa !37
  %22 = getelementptr inbounds nuw %"class.cv::UMat", ptr %6, i32 0, i32 8
  %23 = load i32, ptr %5, align 4, !tbaa !37
  %24 = call noundef nonnull align 4 dereferenceable(4) ptr @_ZN2cv7MatSizeixEi(ptr noundef nonnull align 8 dereferenceable(8) %22, i32 noundef %23)
  store i32 %21, ptr %24, align 4, !tbaa !37
  %25 = load ptr, ptr %4, align 8, !tbaa !65
  %26 = getelementptr inbounds nuw %"class.cv::UMat", ptr %25, i32 0, i32 9
  %27 = load i32, ptr %5, align 4, !tbaa !37
  %28 = call noundef nonnull align 8 dereferenceable(8) ptr @_ZNK2cv7MatStepixEi(ptr noundef nonnull align 8 dereferenceable(24) %26, i32 noundef %27) #16
  %29 = load i64, ptr %28, align 8, !tbaa !50
  %30 = getelementptr inbounds nuw %"class.cv::UMat", ptr %6, i32 0, i32 9
  %31 = load i32, ptr %5, align 4, !tbaa !37
  %32 = call noundef nonnull align 8 dereferenceable(8) ptr @_ZN2cv7MatStepixEi(ptr noundef nonnull align 8 dereferenceable(24) %30, i32 noundef %31) #16
  store i64 %29, ptr %32, align 8, !tbaa !50
  br label %33

33:                                               ; preds = %16
  %34 = load i32, ptr %5, align 4, !tbaa !37
  %35 = add nsw i32 %34, 1
  store i32 %35, ptr %5, align 4, !tbaa !37
  br label %10, !llvm.loop !99

36:                                               ; preds = %15
  ret void
}

; Function Attrs: inlinehint mustprogress nounwind uwtable
define linkonce_odr hidden noundef nonnull align 8 dereferenceable(8) ptr @_ZN2cv7MatStepixEi(ptr noundef nonnull align 8 dereferenceable(24) %0, i32 noundef %1) #5 comdat align 2 {
  %3 = alloca ptr, align 8
  %4 = alloca i32, align 4
  store ptr %0, ptr %3, align 8, !tbaa !86
  store i32 %1, ptr %4, align 4, !tbaa !37
  %5 = load ptr, ptr %3, align 8
  %6 = getelementptr inbounds nuw %"struct.cv::MatStep", ptr %5, i32 0, i32 0
  %7 = load ptr, ptr %6, align 8, !tbaa !88
  %8 = load i32, ptr %4, align 4, !tbaa !37
  %9 = sext i32 %8 to i64
  %10 = getelementptr inbounds i64, ptr %7, i64 %9
  ret ptr %10
}

; Function Attrs: inlinehint mustprogress nounwind uwtable
define linkonce_odr hidden noundef nonnull align 8 dereferenceable(8) ptr @_ZNK2cv7MatStepixEi(ptr noundef nonnull align 8 dereferenceable(24) %0, i32 noundef %1) #5 comdat align 2 {
  %3 = alloca ptr, align 8
  %4 = alloca i32, align 4
  store ptr %0, ptr %3, align 8, !tbaa !86
  store i32 %1, ptr %4, align 4, !tbaa !37
  %5 = load ptr, ptr %3, align 8
  %6 = getelementptr inbounds nuw %"struct.cv::MatStep", ptr %5, i32 0, i32 0
  %7 = load ptr, ptr %6, align 8, !tbaa !88
  %8 = load i32, ptr %4, align 4, !tbaa !37
  %9 = sext i32 %8 to i64
  %10 = getelementptr inbounds i64, ptr %7, i64 %9
  ret ptr %10
}

; Function Attrs: mustprogress uwtable
define void @_ZN2cv4UMat7releaseEv(ptr noundef nonnull align 8 dereferenceable(80) %0) #3 align 2 {
  %2 = alloca ptr, align 8
  %3 = alloca i32, align 4
  %4 = alloca i32, align 4
  %5 = alloca i32, align 4
  store ptr %0, ptr %2, align 8, !tbaa !65
  %6 = load ptr, ptr %2, align 8
  %7 = getelementptr inbounds nuw %"class.cv::UMat", ptr %6, i32 0, i32 6
  %8 = load ptr, ptr %7, align 8, !tbaa !80
  %9 = icmp ne ptr %8, null
  br i1 %9, label %10, label %19

10:                                               ; preds = %1
  %11 = getelementptr inbounds nuw %"class.cv::UMat", ptr %6, i32 0, i32 6
  %12 = load ptr, ptr %11, align 8, !tbaa !80
  %13 = getelementptr inbounds nuw %"struct.cv::UMatData", ptr %12, i32 0, i32 2
  store i32 -1, ptr %3, align 4, !tbaa !37
  %14 = load i32, ptr %3, align 4
  %15 = atomicrmw add ptr %13, i32 %14 acq_rel, align 8
  store i32 %15, ptr %4, align 4
  %16 = load i32, ptr %4, align 4, !tbaa !37
  %17 = icmp eq i32 %16, 1
  br i1 %17, label %18, label %19

18:                                               ; preds = %10
  call void @_ZN2cv4UMat10deallocateEv(ptr noundef nonnull align 8 dereferenceable(80) %6)
  br label %19

19:                                               ; preds = %18, %10, %1
  call void @llvm.lifetime.start.p0(i64 4, ptr %5) #16
  store i32 0, ptr %5, align 4, !tbaa !37
  br label %20

20:                                               ; preds = %33, %19
  %21 = load i32, ptr %5, align 4, !tbaa !37
  %22 = getelementptr inbounds nuw %"class.cv::UMat", ptr %6, i32 0, i32 1
  %23 = load i32, ptr %22, align 4, !tbaa !75
  %24 = icmp slt i32 %21, %23
  br i1 %24, label %26, label %25

25:                                               ; preds = %20
  call void @llvm.lifetime.end.p0(i64 4, ptr %5) #16
  br label %36

26:                                               ; preds = %20
  %27 = getelementptr inbounds nuw %"class.cv::UMat", ptr %6, i32 0, i32 8
  %28 = getelementptr inbounds nuw %"struct.cv::MatSize", ptr %27, i32 0, i32 0
  %29 = load ptr, ptr %28, align 8, !tbaa !96
  %30 = load i32, ptr %5, align 4, !tbaa !37
  %31 = sext i32 %30 to i64
  %32 = getelementptr inbounds i32, ptr %29, i64 %31
  store i32 0, ptr %32, align 4, !tbaa !37
  br label %33

33:                                               ; preds = %26
  %34 = load i32, ptr %5, align 4, !tbaa !37
  %35 = add nsw i32 %34, 1
  store i32 %35, ptr %5, align 4, !tbaa !37
  br label %20, !llvm.loop !100

36:                                               ; preds = %25
  %37 = getelementptr inbounds nuw %"class.cv::UMat", ptr %6, i32 0, i32 6
  store ptr null, ptr %37, align 8, !tbaa !80
  ret void
}

; Function Attrs: mustprogress nounwind uwtable
define void @_ZN2cv4UMat6addrefEv(ptr noundef nonnull align 8 dereferenceable(80) %0) #0 align 2 {
  %2 = alloca ptr, align 8
  %3 = alloca i32, align 4
  %4 = alloca i32, align 4
  store ptr %0, ptr %2, align 8, !tbaa !65
  %5 = load ptr, ptr %2, align 8
  %6 = getelementptr inbounds nuw %"class.cv::UMat", ptr %5, i32 0, i32 6
  %7 = load ptr, ptr %6, align 8, !tbaa !80
  %8 = icmp ne ptr %7, null
  br i1 %8, label %9, label %15

9:                                                ; preds = %1
  %10 = getelementptr inbounds nuw %"class.cv::UMat", ptr %5, i32 0, i32 6
  %11 = load ptr, ptr %10, align 8, !tbaa !80
  %12 = getelementptr inbounds nuw %"struct.cv::UMatData", ptr %11, i32 0, i32 2
  store i32 1, ptr %3, align 4, !tbaa !37
  %13 = load i32, ptr %3, align 4
  %14 = atomicrmw add ptr %12, i32 %13 acq_rel, align 8
  store i32 %14, ptr %4, align 4
  br label %15

15:                                               ; preds = %9, %1
  ret void
}

; Function Attrs: mustprogress uwtable
define noundef nonnull align 8 dereferenceable(80) ptr @_ZN2cv4UMataSERKS0_(ptr noundef nonnull align 8 dereferenceable(80) %0, ptr noundef nonnull align 8 dereferenceable(80) %1) #3 align 2 {
  %3 = alloca ptr, align 8
  %4 = alloca ptr, align 8
  store ptr %0, ptr %3, align 8, !tbaa !65
  store ptr %1, ptr %4, align 8, !tbaa !65
  %5 = load ptr, ptr %3, align 8
  %6 = load ptr, ptr %4, align 8, !tbaa !65
  %7 = icmp ne ptr %5, %6
  br i1 %7, label %8, label %66

8:                                                ; preds = %2
  %9 = load ptr, ptr %4, align 8, !tbaa !65
  call void @_ZN2cv4UMat6addrefEv(ptr noundef nonnull align 8 dereferenceable(80) %9)
  call void @_ZN2cv4UMat7releaseEv(ptr noundef nonnull align 8 dereferenceable(80) %5)
  %10 = load ptr, ptr %4, align 8, !tbaa !65
  %11 = getelementptr inbounds nuw %"class.cv::UMat", ptr %10, i32 0, i32 0
  %12 = load i32, ptr %11, align 8, !tbaa !69
  %13 = getelementptr inbounds nuw %"class.cv::UMat", ptr %5, i32 0, i32 0
  store i32 %12, ptr %13, align 8, !tbaa !69
  %14 = getelementptr inbounds nuw %"class.cv::UMat", ptr %5, i32 0, i32 1
  %15 = load i32, ptr %14, align 4, !tbaa !75
  %16 = icmp sle i32 %15, 2
  br i1 %16, label %17, label %47

17:                                               ; preds = %8
  %18 = load ptr, ptr %4, align 8, !tbaa !65
  %19 = getelementptr inbounds nuw %"class.cv::UMat", ptr %18, i32 0, i32 1
  %20 = load i32, ptr %19, align 4, !tbaa !75
  %21 = icmp sle i32 %20, 2
  br i1 %21, label %22, label %47

22:                                               ; preds = %17
  %23 = load ptr, ptr %4, align 8, !tbaa !65
  %24 = getelementptr inbounds nuw %"class.cv::UMat", ptr %23, i32 0, i32 1
  %25 = load i32, ptr %24, align 4, !tbaa !75
  %26 = getelementptr inbounds nuw %"class.cv::UMat", ptr %5, i32 0, i32 1
  store i32 %25, ptr %26, align 4, !tbaa !75
  %27 = load ptr, ptr %4, align 8, !tbaa !65
  %28 = getelementptr inbounds nuw %"class.cv::UMat", ptr %27, i32 0, i32 2
  %29 = load i32, ptr %28, align 8, !tbaa !76
  %30 = getelementptr inbounds nuw %"class.cv::UMat", ptr %5, i32 0, i32 2
  store i32 %29, ptr %30, align 8, !tbaa !76
  %31 = load ptr, ptr %4, align 8, !tbaa !65
  %32 = getelementptr inbounds nuw %"class.cv::UMat", ptr %31, i32 0, i32 3
  %33 = load i32, ptr %32, align 4, !tbaa !77
  %34 = getelementptr inbounds nuw %"class.cv::UMat", ptr %5, i32 0, i32 3
  store i32 %33, ptr %34, align 4, !tbaa !77
  %35 = load ptr, ptr %4, align 8, !tbaa !65
  %36 = getelementptr inbounds nuw %"class.cv::UMat", ptr %35, i32 0, i32 9
  %37 = call noundef nonnull align 8 dereferenceable(8) ptr @_ZNK2cv7MatStepixEi(ptr noundef nonnull align 8 dereferenceable(24) %36, i32 noundef 0) #16
  %38 = load i64, ptr %37, align 8, !tbaa !50
  %39 = getelementptr inbounds nuw %"class.cv::UMat", ptr %5, i32 0, i32 9
  %40 = call noundef nonnull align 8 dereferenceable(8) ptr @_ZN2cv7MatStepixEi(ptr noundef nonnull align 8 dereferenceable(24) %39, i32 noundef 0) #16
  store i64 %38, ptr %40, align 8, !tbaa !50
  %41 = load ptr, ptr %4, align 8, !tbaa !65
  %42 = getelementptr inbounds nuw %"class.cv::UMat", ptr %41, i32 0, i32 9
  %43 = call noundef nonnull align 8 dereferenceable(8) ptr @_ZNK2cv7MatStepixEi(ptr noundef nonnull align 8 dereferenceable(24) %42, i32 noundef 1) #16
  %44 = load i64, ptr %43, align 8, !tbaa !50
  %45 = getelementptr inbounds nuw %"class.cv::UMat", ptr %5, i32 0, i32 9
  %46 = call noundef nonnull align 8 dereferenceable(8) ptr @_ZN2cv7MatStepixEi(ptr noundef nonnull align 8 dereferenceable(24) %45, i32 noundef 1) #16
  store i64 %44, ptr %46, align 8, !tbaa !50
  br label %49

47:                                               ; preds = %17, %8
  %48 = load ptr, ptr %4, align 8, !tbaa !65
  call void @_ZN2cv4UMat8copySizeERKS0_(ptr noundef nonnull align 8 dereferenceable(80) %5, ptr noundef nonnull align 8 dereferenceable(80) %48)
  br label %49

49:                                               ; preds = %47, %22
  %50 = load ptr, ptr %4, align 8, !tbaa !65
  %51 = getelementptr inbounds nuw %"class.cv::UMat", ptr %50, i32 0, i32 4
  %52 = load ptr, ptr %51, align 8, !tbaa !78
  %53 = getelementptr inbounds nuw %"class.cv::UMat", ptr %5, i32 0, i32 4
  store ptr %52, ptr %53, align 8, !tbaa !78
  %54 = load ptr, ptr %4, align 8, !tbaa !65
  %55 = getelementptr inbounds nuw %"class.cv::UMat", ptr %54, i32 0, i32 5
  %56 = load i32, ptr %55, align 8, !tbaa !79
  %57 = getelementptr inbounds nuw %"class.cv::UMat", ptr %5, i32 0, i32 5
  store i32 %56, ptr %57, align 8, !tbaa !79
  %58 = load ptr, ptr %4, align 8, !tbaa !65
  %59 = getelementptr inbounds nuw %"class.cv::UMat", ptr %58, i32 0, i32 6
  %60 = load ptr, ptr %59, align 8, !tbaa !80
  %61 = getelementptr inbounds nuw %"class.cv::UMat", ptr %5, i32 0, i32 6
  store ptr %60, ptr %61, align 8, !tbaa !80
  %62 = load ptr, ptr %4, align 8, !tbaa !65
  %63 = getelementptr inbounds nuw %"class.cv::UMat", ptr %62, i32 0, i32 7
  %64 = load i64, ptr %63, align 8, !tbaa !81
  %65 = getelementptr inbounds nuw %"class.cv::UMat", ptr %5, i32 0, i32 7
  store i64 %64, ptr %65, align 8, !tbaa !81
  br label %66

66:                                               ; preds = %49, %2
  ret ptr %5
}