; Function Attrs: mustprogress uwtable
define noundef nonnull align 8 dereferenceable(80) ptr @_ZN2cv4UMataSERKS0_(ptr noundef nonnull returned align 8 dereferenceable(80) %0, ptr noundef nonnull readonly align 8 dereferenceable(80) %1) local_unnamed_addr #4 align 2 {
  %.not = icmp eq ptr %0, %1
  br i1 %.not, label %87, label %3

3:                                                ; preds = %2
  %4 = getelementptr inbounds nuw i8, ptr %1, i64 32
  %5 = load ptr, ptr %4, align 8, !tbaa !57
  %.not.i = icmp eq ptr %5, null
  br i1 %.not.i, label %_ZN2cv4UMat6addrefEv.exit, label %6

6:                                                ; preds = %3
  %7 = getelementptr inbounds nuw i8, ptr %5, i64 16
  %8 = atomicrmw add ptr %7, i32 1 acq_rel, align 8
  br label %_ZN2cv4UMat6addrefEv.exit

_ZN2cv4UMat6addrefEv.exit:                        ; preds = %3, %6
  %9 = getelementptr inbounds nuw i8, ptr %0, i64 32
  %10 = load ptr, ptr %9, align 8, !tbaa !57
  %.not.i17 = icmp eq ptr %10, null
  br i1 %.not.i17, label %22, label %11

11:                                               ; preds = %_ZN2cv4UMat6addrefEv.exit
  %12 = getelementptr inbounds nuw i8, ptr %10, i64 16
  %13 = atomicrmw add ptr %12, i32 -1 acq_rel, align 8
  %14 = icmp eq i32 %13, 1
  br i1 %14, label %15, label %22

15:                                               ; preds = %11
  %16 = load ptr, ptr %9, align 8, !tbaa !57
  store ptr null, ptr %9, align 8, !tbaa !57
  %17 = getelementptr inbounds nuw i8, ptr %16, i64 8
  %18 = load ptr, ptr %17, align 8, !tbaa !3
  %19 = load ptr, ptr %18, align 8, !tbaa !21
  %20 = getelementptr inbounds nuw i8, ptr %19, i64 32
  %21 = load ptr, ptr %20, align 8
  tail call void %21(ptr noundef nonnull align 8 dereferenceable(8) %18, ptr noundef %16)
  br label %22

22:                                               ; preds = %15, %11, %_ZN2cv4UMat6addrefEv.exit
  %23 = getelementptr inbounds nuw i8, ptr %0, i64 4
  %24 = load i32, ptr %23, align 4, !tbaa !58
  %25 = icmp sgt i32 %24, 0
  br i1 %25, label %.lr.ph.i, label %_ZN2cv4UMat7releaseEv.exit.thread

_ZN2cv4UMat7releaseEv.exit.thread:                ; preds = %22
  store ptr null, ptr %9, align 8, !tbaa !57
  %26 = load i32, ptr %1, align 8, !tbaa !43
  store i32 %26, ptr %0, align 8, !tbaa !43
  br label %36

.lr.ph.i:                                         ; preds = %22
  %27 = getelementptr inbounds nuw i8, ptr %0, i64 48
  %28 = load ptr, ptr %27, align 8, !tbaa !61
  br label %29

29:                                               ; preds = %29, %.lr.ph.i
  %indvars.iv.i = phi i64 [ 0, %.lr.ph.i ], [ %indvars.iv.next.i, %29 ]
  %30 = getelementptr inbounds nuw i32, ptr %28, i64 %indvars.iv.i
  store i32 0, ptr %30, align 4, !tbaa !28
  %indvars.iv.next.i = add nuw nsw i64 %indvars.iv.i, 1
  %31 = load i32, ptr %23, align 4, !tbaa !58
  %32 = sext i32 %31 to i64
  %33 = icmp slt i64 %indvars.iv.next.i, %32
  br i1 %33, label %29, label %_ZN2cv4UMat7releaseEv.exit, !llvm.loop !62

_ZN2cv4UMat7releaseEv.exit:                       ; preds = %29
  store ptr null, ptr %9, align 8, !tbaa !57
  %34 = load i32, ptr %1, align 8, !tbaa !43
  store i32 %34, ptr %0, align 8, !tbaa !43
  %35 = icmp slt i32 %31, 3
  br i1 %35, label %36, label %_ZN2cv4UMat7releaseEv.exit._crit_edge

_ZN2cv4UMat7releaseEv.exit._crit_edge:            ; preds = %_ZN2cv4UMat7releaseEv.exit
  %.phi.trans.insert = getelementptr inbounds nuw i8, ptr %1, i64 4
  %.pre = load i32, ptr %.phi.trans.insert, align 4, !tbaa !58
  br label %55

36:                                               ; preds = %_ZN2cv4UMat7releaseEv.exit.thread, %_ZN2cv4UMat7releaseEv.exit
  %37 = getelementptr inbounds nuw i8, ptr %1, i64 4
  %38 = load i32, ptr %37, align 4, !tbaa !58
  %39 = icmp slt i32 %38, 3
  br i1 %39, label %40, label %55

40:                                               ; preds = %36
  store i32 %38, ptr %23, align 4, !tbaa !58
  %41 = getelementptr inbounds nuw i8, ptr %1, i64 8
  %42 = load i32, ptr %41, align 8, !tbaa !64
  %43 = getelementptr inbounds nuw i8, ptr %0, i64 8
  store i32 %42, ptr %43, align 8, !tbaa !64
  %44 = getelementptr inbounds nuw i8, ptr %1, i64 12
  %45 = load i32, ptr %44, align 4, !tbaa !65
  %46 = getelementptr inbounds nuw i8, ptr %0, i64 12
  store i32 %45, ptr %46, align 4, !tbaa !65
  %47 = getelementptr inbounds nuw i8, ptr %1, i64 56
  %48 = load ptr, ptr %47, align 8, !tbaa !52
  %49 = load i64, ptr %48, align 8, !tbaa !69
  %50 = getelementptr inbounds nuw i8, ptr %0, i64 56
  %51 = load ptr, ptr %50, align 8, !tbaa !52
  store i64 %49, ptr %51, align 8, !tbaa !69
  %52 = getelementptr inbounds nuw i8, ptr %48, i64 8
  %53 = load i64, ptr %52, align 8, !tbaa !69
  %54 = getelementptr inbounds nuw i8, ptr %51, i64 8
  store i64 %53, ptr %54, align 8, !tbaa !69
  br label %_ZN2cv4UMat8copySizeERKS0_.exit

55:                                               ; preds = %_ZN2cv4UMat7releaseEv.exit._crit_edge, %36
  %56 = phi i32 [ %.pre, %_ZN2cv4UMat7releaseEv.exit._crit_edge ], [ %38, %36 ]
  tail call void @_ZN2cv7setSizeERNS_4UMatEiPKiPKmb(ptr noundef nonnull align 8 dereferenceable(80) %0, i32 noundef %56, ptr noundef null, ptr noundef null, i1 noundef zeroext false)
  %57 = load i32, ptr %23, align 4, !tbaa !58
  %58 = icmp sgt i32 %57, 0
  br i1 %58, label %.lr.ph.i18, label %_ZN2cv4UMat8copySizeERKS0_.exit

.lr.ph.i18:                                       ; preds = %55
  %59 = getelementptr inbounds nuw i8, ptr %1, i64 48
  %60 = load ptr, ptr %59, align 8, !tbaa !51
  %61 = getelementptr inbounds nuw i8, ptr %0, i64 48
  %62 = load ptr, ptr %61, align 8, !tbaa !51
  %63 = getelementptr inbounds nuw i8, ptr %1, i64 56
  %64 = load ptr, ptr %63, align 8, !tbaa !52
  %65 = getelementptr inbounds nuw i8, ptr %0, i64 56
  %66 = load ptr, ptr %65, align 8, !tbaa !52
  br label %67

67:                                               ; preds = %67, %.lr.ph.i18
  %indvars.iv.i19 = phi i64 [ 0, %.lr.ph.i18 ], [ %indvars.iv.next.i20, %67 ]
  %68 = getelementptr inbounds nuw i32, ptr %60, i64 %indvars.iv.i19
  %69 = load i32, ptr %68, align 4, !tbaa !28
  %70 = getelementptr inbounds nuw i32, ptr %62, i64 %indvars.iv.i19
  store i32 %69, ptr %70, align 4, !tbaa !28
  %71 = getelementptr inbounds nuw i64, ptr %64, i64 %indvars.iv.i19
  %72 = load i64, ptr %71, align 8, !tbaa !69
  %73 = getelementptr inbounds nuw i64, ptr %66, i64 %indvars.iv.i19
  store i64 %72, ptr %73, align 8, !tbaa !69
  %indvars.iv.next.i20 = add nuw nsw i64 %indvars.iv.i19, 1
  %74 = load i32, ptr %23, align 4, !tbaa !58
  %75 = sext i32 %74 to i64
  %76 = icmp slt i64 %indvars.iv.next.i20, %75
  br i1 %76, label %67, label %_ZN2cv4UMat8copySizeERKS0_.exit, !llvm.loop !70

_ZN2cv4UMat8copySizeERKS0_.exit:                  ; preds = %67, %55, %40
  %77 = getelementptr inbounds nuw i8, ptr %1, i64 16
  %78 = load ptr, ptr %77, align 8, !tbaa !68
  %79 = getelementptr inbounds nuw i8, ptr %0, i64 16
  store ptr %78, ptr %79, align 8, !tbaa !68
  %80 = getelementptr inbounds nuw i8, ptr %1, i64 24
  %81 = load i32, ptr %80, align 8, !tbaa !50
  %82 = getelementptr inbounds nuw i8, ptr %0, i64 24
  store i32 %81, ptr %82, align 8, !tbaa !50
  %83 = load ptr, ptr %4, align 8, !tbaa !57
  store ptr %83, ptr %9, align 8, !tbaa !57
  %84 = getelementptr inbounds nuw i8, ptr %1, i64 40
  %85 = load i64, ptr %84, align 8, !tbaa !63
  %86 = getelementptr inbounds nuw i8, ptr %0, i64 40
  store i64 %85, ptr %86, align 8, !tbaa !63
  br label %87

87:                                               ; preds = %_ZN2cv4UMat8copySizeERKS0_.exit, %2
  ret ptr %0
}